; Function Attrs: nounwind uwtable
define noundef i32 @cli_LzmaInit(ptr noundef %0, i64 noundef %1) local_unnamed_addr #0 {
  %3 = getelementptr inbounds i8, ptr %0, i64 156
  %4 = load i32, ptr %3, align 4
  %.not = icmp eq i32 %4, 0
  br i1 %.not, label %5, label %9

5:                                                ; preds = %2
  %6 = getelementptr inbounds i8, ptr %0, i64 144
  store i32 5, ptr %6, align 8
  %.not29 = icmp eq i64 %1, 0
  %spec.select = select i1 %.not29, i32 8, i32 0
  %7 = getelementptr inbounds i8, ptr %0, i64 148
  store i32 %spec.select, ptr %7, align 4
  %8 = getelementptr inbounds i8, ptr %0, i64 160
  store i64 %1, ptr %8, align 8
  store i32 1, ptr %3, align 4
  br label %11

9:                                                ; preds = %2
  %.not30 = icmp eq i64 %1, 0
  br i1 %.not30, label %11, label %10

10:                                               ; preds = %9
  tail call void (ptr, ...) @cli_warnmsg(ptr noundef nonnull @.str) #6
  br label %11

11:                                               ; preds = %9, %10, %5
  %12 = getelementptr inbounds i8, ptr %0, i64 152
  %13 = load i32, ptr %12, align 8
  %.not31 = icmp eq i32 %13, 0
  br i1 %.not31, label %.preheader49, label %lzma_getbyte.exit40.thread

.preheader49:                                     ; preds = %11
  %14 = getelementptr inbounds i8, ptr %0, i64 144
  %15 = load i32, ptr %14, align 8
  %.not3251 = icmp eq i32 %15, 0
  br i1 %.not3251, label %.preheader, label %.lr.ph

.lr.ph:                                           ; preds = %.preheader49
  %16 = getelementptr inbounds i8, ptr %0, i64 168
  %17 = getelementptr inbounds i8, ptr %0, i64 184
  %18 = getelementptr inbounds i8, ptr %0, i64 136
  br label %24

.preheader:                                       ; preds = %32, %.preheader49
  %19 = getelementptr inbounds i8, ptr %0, i64 148
  %.promoted = load i32, ptr %19, align 4
  %.not3352 = icmp eq i32 %.promoted, 0
  br i1 %.not3352, label %._crit_edge, label %.lr.ph53

.lr.ph53:                                         ; preds = %.preheader
  %20 = getelementptr inbounds i8, ptr %0, i64 168
  %21 = getelementptr inbounds i8, ptr %0, i64 184
  %22 = getelementptr inbounds i8, ptr %0, i64 160
  %.promoted54 = load ptr, ptr %20, align 8
  %23 = zext i32 %.promoted to i64
  br label %41

24:                                               ; preds = %.lr.ph, %32
  %25 = phi i32 [ %15, %.lr.ph ], [ %40, %32 ]
  %26 = load ptr, ptr %16, align 8
  %.not.i = icmp eq ptr %26, null
  br i1 %.not.i, label %lzma_getbyte.exit.thread, label %27

27:                                               ; preds = %24
  %28 = load i64, ptr %17, align 8
  %.not8.i = icmp eq i64 %28, 0
  br i1 %.not8.i, label %lzma_getbyte.exit.thread, label %32

lzma_getbyte.exit.thread:                         ; preds = %27, %24
  %29 = sub i32 5, %25
  %30 = zext i32 %29 to i64
  %31 = getelementptr inbounds [5 x i8], ptr %18, i64 0, i64 %30
  store i8 0, ptr %31, align 1
  br label %lzma_getbyte.exit40.thread

32:                                               ; preds = %27
  %33 = load i8, ptr %26, align 1
  %34 = getelementptr inbounds i8, ptr %26, i64 1
  store ptr %34, ptr %16, align 8
  %35 = add i64 %28, -1
  store i64 %35, ptr %17, align 8
  %36 = sub i32 5, %25
  %37 = zext i32 %36 to i64
  %38 = getelementptr inbounds [5 x i8], ptr %18, i64 0, i64 %37
  store i8 %33, ptr %38, align 1
  %39 = load i32, ptr %14, align 8
  %40 = add i32 %39, -1
  store i32 %40, ptr %14, align 8
  %.not32 = icmp eq i32 %40, 0
  br i1 %.not32, label %.preheader, label %24

41:                                               ; preds = %.lr.ph53, %45
  %indvars.iv = phi i64 [ %23, %.lr.ph53 ], [ %indvars.iv.next, %45 ]
  %42 = phi ptr [ %.promoted54, %.lr.ph53 ], [ %47, %45 ]
  %.not.i37 = icmp eq ptr %42, null
  br i1 %.not.i37, label %lzma_getbyte.exit40.thread, label %43

43:                                               ; preds = %41
  %44 = load i64, ptr %21, align 8
  %.not8.i38 = icmp eq i64 %44, 0
  br i1 %.not8.i38, label %lzma_getbyte.exit40.thread, label %45

45:                                               ; preds = %43
  %46 = load i8, ptr %42, align 1
  %47 = getelementptr inbounds i8, ptr %42, i64 1
  store ptr %47, ptr %20, align 8
  %48 = add i64 %44, -1
  store i64 %48, ptr %21, align 8
  %49 = zext i8 %46 to i64
  %50 = shl i64 %indvars.iv, 3
  %51 = sub i64 64, %50
  %52 = and i64 %51, 4294967288
  %53 = shl i64 %49, %52
  %54 = load i64, ptr %22, align 8
  %55 = or i64 %54, %53
  store i64 %55, ptr %22, align 8
  %indvars.iv.next = add nsw i64 %indvars.iv, -1
  %indvars = trunc i64 %indvars.iv.next to i32
  store i32 %indvars, ptr %19, align 4
  %.not33 = icmp eq i32 %indvars, 0
  br i1 %.not33, label %._crit_edge, label %41

._crit_edge:                                      ; preds = %45, %.preheader
  %56 = getelementptr inbounds i8, ptr %0, i64 16
  %57 = getelementptr inbounds i8, ptr %0, i64 136
  tail call void @llvm.memset.p0.i64(ptr noundef nonnull align 8 dereferenceable(16) %56, i8 0, i64 16, i1 false)
  %58 = tail call i32 @LzmaDec_Allocate(ptr noundef nonnull %0, ptr noundef nonnull %57, i32 noundef 5, ptr noundef nonnull @g_Alloc) #6
  %.not34 = icmp eq i32 %58, 0
  br i1 %.not34, label %59, label %lzma_getbyte.exit40.thread

59:                                               ; preds = %._crit_edge
  tail call void @LzmaDec_Init(ptr noundef nonnull %0) #6
  store i32 1, ptr %12, align 8
  br label %lzma_getbyte.exit40.thread

lzma_getbyte.exit40.thread:                       ; preds = %41, %43, %lzma_getbyte.exit.thread, %._crit_edge, %11, %59
  %.0 = phi i32 [ 0, %59 ], [ 0, %11 ], [ 1, %._crit_edge ], [ 0, %lzma_getbyte.exit.thread ], [ 0, %43 ], [ 0, %41 ]
  ret i32 %.0
}